target datalayout = "e-m:e-p270:32:32-p271:32:32-p272:64:64-i64:64-i128:128-f80:128-n8:16:32:64-S128"
target triple = "x86_64-unknown-linux-gnu"

%"class.ODDLParser::OpenDDLExport" = type { ptr }

; Function Attrs: mustprogress nounwind uwtable
define hidden void @_ZN10ODDLParser13OpenDDLExportD2Ev(ptr noundef nonnull align 8 dereferenceable(8) %this) unnamed_addr #4 align 2 personality ptr @__gxx_personality_v0 {
entry:
  %this.addr = alloca ptr, align 8
  store ptr %this, ptr %this.addr, align 8
  %this1 = load ptr, ptr %this.addr, align 8
  %m_stream = getelementptr inbounds %"class.ODDLParser::OpenDDLExport", ptr %this1, i32 0, i32 0
  %0 = load ptr, ptr %m_stream, align 8
  %cmp = icmp ne ptr null, %0
  br i1 %cmp, label %if.then, label %if.end

if.then:                                          ; preds = %entry
  %m_stream2 = getelementptr inbounds %"class.ODDLParser::OpenDDLExport", ptr %this1, i32 0, i32 0
  %1 = load ptr, ptr %m_stream2, align 8
  %vtable = load ptr, ptr %1, align 8
  %vfn = getelementptr inbounds ptr, ptr %vtable, i64 3
  %2 = load ptr, ptr %vfn, align 8
  %call = invoke noundef zeroext i1 %2(ptr noundef nonnull align 8 dereferenceable(24) %1)
          to label %invoke.cont unwind label %terminate.lpad

invoke.cont:                                      ; preds = %if.then
  br label %if.end

if.end:                                           ; preds = %invoke.cont, %entry
  %m_stream3 = getelementptr inbounds %"class.ODDLParser::OpenDDLExport", ptr %this1, i32 0, i32 0
  %3 = load ptr, ptr %m_stream3, align 8
  %isnull = icmp eq ptr %3, null
  br i1 %isnull, label %delete.end, label %delete.notnull

delete.notnull:                                   ; preds = %if.end
  %vtable4 = load ptr, ptr %3, align 8
  %vfn5 = getelementptr inbounds ptr, ptr %vtable4, i64 1
  %4 = load ptr, ptr %vfn5, align 8
  call void %4(ptr noundef nonnull align 8 dereferenceable(24) %3) #11
  br label %delete.end

delete.end:                                       ; preds = %delete.notnull, %if.end
  ret void

terminate.lpad:                                   ; preds = %if.then
  %5 = landingpad { ptr, i32 }
          catch ptr null
  %6 = extractvalue { ptr, i32 } %5, 0
  call void @__clang_call_terminate(ptr %6) #12
  unreachable
}