; Function Attrs: mustprogress nounwind uwtable
define hidden void @_ZN10ODDLParser13OpenDDLExportD2Ev(ptr noundef nonnull readonly align 8 captures(none) dereferenceable(8) %this) unnamed_addr #4 align 2 personality ptr @__gxx_personality_v0 {
entry:
  %0 = load ptr, ptr %this, align 8
  %cmp.not = icmp eq ptr %0, null
  br i1 %cmp.not, label %delete.end, label %if.then

if.then:                                          ; preds = %entry
  %vtable = load ptr, ptr %0, align 8
  %vfn = getelementptr inbounds nuw i8, ptr %vtable, i64 24
  %1 = load ptr, ptr %vfn, align 8
  %call = invoke noundef zeroext i1 %1(ptr noundef nonnull align 8 dereferenceable(24) %0)
          to label %if.end unwind label %terminate.lpad

if.end:                                           ; preds = %if.then
  %.pr = load ptr, ptr %this, align 8
  %isnull = icmp eq ptr %.pr, null
  br i1 %isnull, label %delete.end, label %delete.notnull

delete.notnull:                                   ; preds = %if.end
  %vtable4 = load ptr, ptr %.pr, align 8
  %vfn5 = getelementptr inbounds nuw i8, ptr %vtable4, i64 8
  %2 = load ptr, ptr %vfn5, align 8
  tail call void %2(ptr noundef nonnull align 8 dereferenceable(24) %.pr) #14
  br label %delete.end

delete.end:                                       ; preds = %entry, %delete.notnull, %if.end
  ret void

terminate.lpad:                                   ; preds = %if.then
  %3 = landingpad { ptr, i32 }
          catch ptr null
  %4 = extractvalue { ptr, i32 } %3, 0
  tail call void @__clang_call_terminate(ptr %4) #15
  unreachable
}